target datalayout = "e-m:e-p270:32:32-p271:32:32-p272:64:64-i64:64-i128:128-f80:128-n8:16:32:64-S128"
target triple = "x86_64-pc-linux-gnu"

%struct.diff_options = type { ptr, ptr, i32, i32, ptr, i32, ptr, i64, i64, ptr, ptr, ptr, ptr, %struct.diff_flags, i32, i32, i32, i32, i32, i32, i32, i32, i32, i32, i32, i32, i32, i32, i32, i32, i32, i32, i32, i32, i32, i32, ptr, i32, ptr, i32, i32, ptr, i64, i64, i32, i32, i32, i32, ptr, i32, i32, ptr, i32, i32, ptr, ptr, i32, [3 x i8], %struct.pathspec, ptr, ptr, ptr, ptr, ptr, ptr, ptr, ptr, i32, ptr, i32, i32, ptr, ptr, i32 }
%struct.diff_flags = type { i32, i32, i32, i32, i32, i32, i32, i32, i32, i32, i32, i32, i32, i32, i32, i32, i32, i32, i32, i32, i32, i32, i32, i32, i32, i32, i32, i32, i32, i32, i32, i32, i32, i32, i32 }
%struct.pathspec = type { i32, i8, i32, i32, ptr }
%struct.emitted_diff_symbol = type { ptr, i32, i32, i32, i32, i32, i32 }
%struct.hashmap_entry = type { ptr, i32 }
%struct.interned_diff_symbol = type { %struct.hashmap_entry, ptr }

; Function Attrs: nounwind uwtable
define internal i32 @interned_diff_symbol_cmp(ptr noundef %0, ptr noundef %1, ptr noundef %2, ptr noundef %3) #0 {
  %5 = alloca ptr, align 8
  %6 = alloca ptr, align 8
  %7 = alloca ptr, align 8
  %8 = alloca ptr, align 8
  %9 = alloca ptr, align 8
  %10 = alloca ptr, align 8
  %11 = alloca ptr, align 8
  %12 = alloca i32, align 4
  store ptr %0, ptr %5, align 8, !tbaa !18
  store ptr %1, ptr %6, align 8, !tbaa !481
  store ptr %2, ptr %7, align 8, !tbaa !481
  store ptr %3, ptr %8, align 8, !tbaa !18
  call void @llvm.lifetime.start.p0(i64 8, ptr %9) #10
  %13 = load ptr, ptr %5, align 8, !tbaa !18
  store ptr %13, ptr %9, align 8, !tbaa !34
  call void @llvm.lifetime.start.p0(i64 8, ptr %10) #10
  call void @llvm.lifetime.start.p0(i64 8, ptr %11) #10
  call void @llvm.lifetime.start.p0(i64 4, ptr %12) #10
  %14 = load ptr, ptr %9, align 8, !tbaa !34
  %15 = getelementptr inbounds nuw %struct.diff_options, ptr %14, i32 0, i32 70
  %16 = load i32, ptr %15, align 4, !tbaa !176
  %17 = and i32 %16, 30
  store i32 %17, ptr %12, align 4, !tbaa !16
  %18 = load ptr, ptr %6, align 8, !tbaa !481
  %19 = getelementptr inbounds i8, ptr %18, i64 0
  %20 = getelementptr inbounds nuw %struct.interned_diff_symbol, ptr %19, i32 0, i32 1
  %21 = load ptr, ptr %20, align 8, !tbaa !463
  store ptr %21, ptr %10, align 8, !tbaa !405
  %22 = load ptr, ptr %7, align 8, !tbaa !481
  %23 = getelementptr inbounds i8, ptr %22, i64 0
  %24 = getelementptr inbounds nuw %struct.interned_diff_symbol, ptr %23, i32 0, i32 1
  %25 = load ptr, ptr %24, align 8, !tbaa !463
  store ptr %25, ptr %11, align 8, !tbaa !405
  %26 = load ptr, ptr %10, align 8, !tbaa !405
  %27 = getelementptr inbounds nuw %struct.emitted_diff_symbol, ptr %26, i32 0, i32 0
  %28 = load ptr, ptr %27, align 8, !tbaa !60
  %29 = load ptr, ptr %10, align 8, !tbaa !405
  %30 = getelementptr inbounds nuw %struct.emitted_diff_symbol, ptr %29, i32 0, i32 3
  %31 = load i32, ptr %30, align 8, !tbaa !64
  %32 = sext i32 %31 to i64
  %33 = getelementptr inbounds i8, ptr %28, i64 %32
  %34 = load ptr, ptr %10, align 8, !tbaa !405
  %35 = getelementptr inbounds nuw %struct.emitted_diff_symbol, ptr %34, i32 0, i32 1
  %36 = load i32, ptr %35, align 8, !tbaa !62
  %37 = load ptr, ptr %10, align 8, !tbaa !405
  %38 = getelementptr inbounds nuw %struct.emitted_diff_symbol, ptr %37, i32 0, i32 3
  %39 = load i32, ptr %38, align 8, !tbaa !64
  %40 = sub nsw i32 %36, %39
  %41 = sext i32 %40 to i64
  %42 = load ptr, ptr %11, align 8, !tbaa !405
  %43 = getelementptr inbounds nuw %struct.emitted_diff_symbol, ptr %42, i32 0, i32 0
  %44 = load ptr, ptr %43, align 8, !tbaa !60
  %45 = load ptr, ptr %11, align 8, !tbaa !405
  %46 = getelementptr inbounds nuw %struct.emitted_diff_symbol, ptr %45, i32 0, i32 3
  %47 = load i32, ptr %46, align 8, !tbaa !64
  %48 = sext i32 %47 to i64
  %49 = getelementptr inbounds i8, ptr %44, i64 %48
  %50 = load ptr, ptr %11, align 8, !tbaa !405
  %51 = getelementptr inbounds nuw %struct.emitted_diff_symbol, ptr %50, i32 0, i32 1
  %52 = load i32, ptr %51, align 8, !tbaa !62
  %53 = load ptr, ptr %11, align 8, !tbaa !405
  %54 = getelementptr inbounds nuw %struct.emitted_diff_symbol, ptr %53, i32 0, i32 3
  %55 = load i32, ptr %54, align 8, !tbaa !64
  %56 = sub nsw i32 %52, %55
  %57 = sext i32 %56 to i64
  %58 = load i32, ptr %12, align 4, !tbaa !16
  %59 = zext i32 %58 to i64
  %60 = call i32 @xdiff_compare_lines(ptr noundef %33, i64 noundef %41, ptr noundef %49, i64 noundef %57, i64 noundef %59)
  %61 = icmp ne i32 %60, 0
  %62 = xor i1 %61, true
  %63 = zext i1 %62 to i32
  call void @llvm.lifetime.end.p0(i64 4, ptr %12) #10
  call void @llvm.lifetime.end.p0(i64 8, ptr %11) #10
  call void @llvm.lifetime.end.p0(i64 8, ptr %10) #10
  call void @llvm.lifetime.end.p0(i64 8, ptr %9) #10
  ret i32 %63
}