; Function Attrs: nounwind uwtable
define internal range(i32 0, 2) i32 @interned_diff_symbol_cmp(ptr noundef readonly captures(none) %0, ptr noundef readonly captures(none) %1, ptr noundef readonly captures(none) %2, ptr readnone captures(none) %3) #0 {
  %5 = getelementptr inbounds nuw i8, ptr %0, i64 564
  %6 = load i32, ptr %5, align 4, !tbaa !161
  %7 = and i32 %6, 30
  %8 = getelementptr inbounds nuw i8, ptr %1, i64 16
  %9 = load ptr, ptr %8, align 8, !tbaa !332
  %10 = getelementptr inbounds nuw i8, ptr %2, i64 16
  %11 = load ptr, ptr %10, align 8, !tbaa !332
  %12 = load ptr, ptr %9, align 8, !tbaa !47
  %13 = getelementptr inbounds nuw i8, ptr %9, i64 16
  %14 = load i32, ptr %13, align 8, !tbaa !51
  %15 = sext i32 %14 to i64
  %16 = getelementptr inbounds i8, ptr %12, i64 %15
  %17 = getelementptr inbounds nuw i8, ptr %9, i64 8
  %18 = load i32, ptr %17, align 8, !tbaa !49
  %19 = sub nsw i32 %18, %14
  %20 = sext i32 %19 to i64
  %21 = load ptr, ptr %11, align 8, !tbaa !47
  %22 = getelementptr inbounds nuw i8, ptr %11, i64 16
  %23 = load i32, ptr %22, align 8, !tbaa !51
  %24 = sext i32 %23 to i64
  %25 = getelementptr inbounds i8, ptr %21, i64 %24
  %26 = getelementptr inbounds nuw i8, ptr %11, i64 8
  %27 = load i32, ptr %26, align 8, !tbaa !49
  %28 = sub nsw i32 %27, %23
  %29 = sext i32 %28 to i64
  %30 = zext nneg i32 %7 to i64
  %31 = tail call i32 @xdiff_compare_lines(ptr noundef %16, i64 noundef %20, ptr noundef %25, i64 noundef %29, i64 noundef %30) #32
  %.not = icmp eq i32 %31, 0
  %32 = zext i1 %.not to i32
  ret i32 %32
}